; Function Attrs: cold nounwind optsize uwtable
define internal noundef i32 @sharpness_vaapi_init(ptr noundef %0) #0 {
  %2 = getelementptr inbounds nuw i8, ptr %0, i64 72
  %3 = load ptr, ptr %2, align 8, !tbaa !4
  tail call void @ff_vaapi_vpp_ctx_init(ptr noundef %0) #5
  %4 = getelementptr inbounds nuw i8, ptr %3, i64 136
  store ptr @ff_vaapi_vpp_pipeline_uninit, ptr %4, align 8, !tbaa !20
  %5 = getelementptr inbounds nuw i8, ptr %3, i64 128
  store ptr @sharpness_vaapi_build_filter_params, ptr %5, align 8, !tbaa !26
  %6 = getelementptr inbounds nuw i8, ptr %3, i64 64
  store i32 -1, ptr %6, align 8, !tbaa !27
  %7 = getelementptr inbounds nuw i8, ptr %3, i64 144
  %8 = load i32, ptr %7, align 8, !tbaa !31
  %9 = icmp eq i32 %8, 44
  br i1 %9, label %10, label %12

10:                                               ; preds = %1
  %11 = getelementptr inbounds nuw i8, ptr %3, i64 120
  store i32 1, ptr %11, align 8, !tbaa !30
  br label %12

12:                                               ; preds = %10, %1
  ret i32 0
}